; Function Attrs: mustprogress uwtable
define void @_ZN39grpc_google_default_channel_credentials16update_argumentsEN9grpc_core11ChannelArgsE(ptr dead_on_unwind noalias writable sret(%"class.grpc_core::ChannelArgs") align 8 %0, ptr nonnull readnone align 8 captures(none) %1, ptr noundef nonnull %2) unnamed_addr #3 align 2 personality ptr @__gxx_personality_v0 {
  %4 = tail call noundef zeroext i1 @_ZNK9grpc_core11ChannelArgs8ContainsESt17basic_string_viewIcSt11char_traitsIcEE(ptr noundef nonnull align 8 dereferenceable(8) %2, i64 27, ptr nonnull @.str.5), !noalias !27
  br i1 %4, label %5, label %6

5:                                                ; preds = %3
  tail call void @_ZN9grpc_core11ChannelArgsC1ERKS0_(ptr noundef nonnull align 8 dereferenceable(8) %0, ptr noundef nonnull align 8 dereferenceable(8) %2)
  br label %_ZNK9grpc_core11ChannelArgs10SetIfUnsetIbEES0_St17basic_string_viewIcSt11char_traitsIcEET_.exit

6:                                                ; preds = %3
  tail call void @_ZNK9grpc_core11ChannelArgs3SetESt17basic_string_viewIcSt11char_traitsIcEEi(ptr dead_on_unwind writable sret(%"class.grpc_core::ChannelArgs") align 8 %0, ptr noundef nonnull align 8 dereferenceable(8) %2, i64 27, ptr nonnull @.str.5, i32 noundef 1)
  br label %_ZNK9grpc_core11ChannelArgs10SetIfUnsetIbEES0_St17basic_string_viewIcSt11char_traitsIcEET_.exit

_ZNK9grpc_core11ChannelArgs10SetIfUnsetIbEES0_St17basic_string_viewIcSt11char_traitsIcEET_.exit: ; preds = %5, %6
  ret void
}